; Function Attrs: mustprogress uwtable
define internal void @_ZN11opencv_test12_GLOBAL__N_147gtest_KNN_GetBackgroundImage_KNN_EvalGenerator_B5cxx11Ev(ptr dead_on_unwind noalias writable sret(%"class.testing::internal::ParamGenerator") align 8 %0) #3 personality ptr @__gxx_personality_v0 {
  %2 = alloca %"class.testing::internal::ValueArray2.87", align 8
  %3 = alloca %"struct.std::pair", align 8
  %4 = alloca %"class.std::__cxx11::basic_string", align 8
  %5 = alloca %"class.std::allocator.0", align 1
  %6 = alloca %"struct.std::pair", align 8
  %7 = alloca %"class.std::__cxx11::basic_string", align 8
  %8 = alloca %"class.std::allocator.0", align 1
  call void @_ZNSaIcEC1Ev(ptr noundef nonnull align 1 dereferenceable(1) %5) #24
  invoke void @_ZNSt7__cxx1112basic_stringIcSt11char_traitsIcESaIcEEC1EPKcRKS3_(ptr noundef nonnull align 8 dereferenceable(32) %4, ptr noundef nonnull @.str.45, ptr noundef nonnull align 1 dereferenceable(1) %5)
          to label %9 unwind label %16

9:                                                ; preds = %1
  call void @_ZNSt7__cxx1112basic_stringIcSt11char_traitsIcESaIcEEC1EOS4_(ptr noundef nonnull align 8 dereferenceable(32) %3, ptr noundef nonnull align 8 dereferenceable(32) %4) #24
  %10 = getelementptr inbounds i8, ptr %3, i64 32
  store i32 5, ptr %10, align 8, !alias.scope !11
  call void @_ZNSaIcEC1Ev(ptr noundef nonnull align 1 dereferenceable(1) %8) #24
  invoke void @_ZNSt7__cxx1112basic_stringIcSt11char_traitsIcESaIcEEC1EPKcRKS3_(ptr noundef nonnull align 8 dereferenceable(32) %7, ptr noundef nonnull @.str.46, ptr noundef nonnull align 1 dereferenceable(1) %8)
          to label %11 unwind label %18

11:                                               ; preds = %9
  call void @_ZNSt7__cxx1112basic_stringIcSt11char_traitsIcESaIcEEC1EOS4_(ptr noundef nonnull align 8 dereferenceable(32) %6, ptr noundef nonnull align 8 dereferenceable(32) %7) #24
  %12 = getelementptr inbounds i8, ptr %6, i64 32
  store i32 5, ptr %12, align 8, !alias.scope !14
  invoke void @_ZN7testing6ValuesISt4pairINSt7__cxx1112basic_stringIcSt11char_traitsIcESaIcEEEiES8_EENS_8internal11ValueArray2IT_T0_EESB_SC_(ptr dead_on_unwind nonnull writable sret(%"class.testing::internal::ValueArray2.87") align 8 %2, ptr noundef nonnull %3, ptr noundef nonnull %6)
          to label %13 unwind label %20

13:                                               ; preds = %11
  invoke void @_ZNK7testing8internal11ValueArray2ISt4pairINSt7__cxx1112basic_stringIcSt11char_traitsIcESaIcEEEiES9_EcvNS0_14ParamGeneratorIT_EEISt5tupleIJS8_iEEEEv(ptr dead_on_unwind writable sret(%"class.testing::internal::ParamGenerator") align 8 %0, ptr noundef nonnull align 8 dereferenceable(80) %2)
          to label %14 unwind label %22

14:                                               ; preds = %13
  %15 = getelementptr inbounds i8, ptr %2, i64 40
  call void @_ZNSt7__cxx1112basic_stringIcSt11char_traitsIcESaIcEED1Ev(ptr noundef nonnull align 8 dereferenceable(32) %15) #24
  call void @_ZNSt7__cxx1112basic_stringIcSt11char_traitsIcESaIcEED1Ev(ptr noundef nonnull align 8 dereferenceable(32) %2) #24
  call void @_ZNSt7__cxx1112basic_stringIcSt11char_traitsIcESaIcEED1Ev(ptr noundef nonnull align 8 dereferenceable(32) %6) #24
  call void @_ZNSt7__cxx1112basic_stringIcSt11char_traitsIcESaIcEED1Ev(ptr noundef nonnull align 8 dereferenceable(32) %7) #24
  call void @_ZNSaIcED1Ev(ptr noundef nonnull align 1 dereferenceable(1) %8) #24
  call void @_ZNSt7__cxx1112basic_stringIcSt11char_traitsIcESaIcEED1Ev(ptr noundef nonnull align 8 dereferenceable(32) %3) #24
  call void @_ZNSt7__cxx1112basic_stringIcSt11char_traitsIcESaIcEED1Ev(ptr noundef nonnull align 8 dereferenceable(32) %4) #24
  call void @_ZNSaIcED1Ev(ptr noundef nonnull align 1 dereferenceable(1) %5) #24
  ret void

16:                                               ; preds = %1
  %17 = landingpad { ptr, i32 }
          cleanup
  br label %27

18:                                               ; preds = %9
  %19 = landingpad { ptr, i32 }
          cleanup
  br label %26

20:                                               ; preds = %11
  %21 = landingpad { ptr, i32 }
          cleanup
  br label %25

22:                                               ; preds = %13
  %23 = landingpad { ptr, i32 }
          cleanup
  %24 = getelementptr inbounds i8, ptr %2, i64 40
  call void @_ZNSt7__cxx1112basic_stringIcSt11char_traitsIcESaIcEED1Ev(ptr noundef nonnull align 8 dereferenceable(32) %24) #24
  call void @_ZNSt7__cxx1112basic_stringIcSt11char_traitsIcESaIcEED1Ev(ptr noundef nonnull align 8 dereferenceable(32) %2) #24
  br label %25

25:                                               ; preds = %22, %20
  %.pn = phi { ptr, i32 } [ %23, %22 ], [ %21, %20 ]
  call void @_ZNSt7__cxx1112basic_stringIcSt11char_traitsIcESaIcEED1Ev(ptr noundef nonnull align 8 dereferenceable(32) %6) #24
  call void @_ZNSt7__cxx1112basic_stringIcSt11char_traitsIcESaIcEED1Ev(ptr noundef nonnull align 8 dereferenceable(32) %7) #24
  br label %26

26:                                               ; preds = %25, %18
  %.pn.pn.pn = phi { ptr, i32 } [ %.pn, %25 ], [ %19, %18 ]
  call void @_ZNSaIcED1Ev(ptr noundef nonnull align 1 dereferenceable(1) %8) #24
  call void @_ZNSt7__cxx1112basic_stringIcSt11char_traitsIcESaIcEED1Ev(ptr noundef nonnull align 8 dereferenceable(32) %3) #24
  call void @_ZNSt7__cxx1112basic_stringIcSt11char_traitsIcESaIcEED1Ev(ptr noundef nonnull align 8 dereferenceable(32) %4) #24
  br label %27

27:                                               ; preds = %26, %16
  %.pn.pn.pn.pn.pn = phi { ptr, i32 } [ %.pn.pn.pn, %26 ], [ %17, %16 ]
  call void @_ZNSaIcED1Ev(ptr noundef nonnull align 1 dereferenceable(1) %5) #24
  resume { ptr, i32 } %.pn.pn.pn.pn.pn
}